; Function Attrs: nounwind uwtable
define internal i32 @SpoolssGetPrinterData_q(ptr noundef %0, i32 noundef %1, ptr noundef %2, ptr noundef %3, ptr noundef %4, ptr noundef %5) #0 {
  %7 = alloca ptr, align 8
  %8 = getelementptr inbounds nuw i8, ptr %4, i64 72
  %9 = load ptr, ptr %8, align 8
  %10 = load i32, ptr @hf_printerdata, align 4
  %11 = tail call ptr @proto_tree_add_uint(ptr noundef %3, i32 noundef %10, ptr noundef %0, i32 noundef %1, i32 noundef 0, i32 noundef 1) #5
  %.not.i = icmp eq ptr %11, null
  br i1 %.not.i, label %proto_item_set_hidden.exit, label %12

12:                                               ; preds = %6
  %13 = getelementptr inbounds nuw i8, ptr %11, i64 32
  %14 = load ptr, ptr %13, align 8
  %.not5.i = icmp eq ptr %14, null
  br i1 %.not5.i, label %proto_item_set_hidden.exit, label %15

15:                                               ; preds = %12
  %16 = getelementptr inbounds nuw i8, ptr %14, i64 28
  %17 = load i32, ptr %16, align 4
  %18 = or i32 %17, 1
  store i32 %18, ptr %16, align 4
  br label %proto_item_set_hidden.exit

proto_item_set_hidden.exit:                       ; preds = %6, %12, %15
  %19 = load i32, ptr @hf_hnd, align 4
  %20 = tail call i32 @dissect_nt_policy_hnd(ptr noundef %0, i32 noundef %1, ptr noundef %2, ptr noundef %3, ptr noundef nonnull %4, ptr noundef %5, i32 noundef %19, ptr noundef null, ptr noundef null, i32 noundef 0, i32 noundef 0) #5
  store ptr null, ptr %7, align 8
  %21 = load i32, ptr @hf_printerdata_value, align 4
  %22 = call i32 @dissect_ndr_cvstring(ptr noundef %0, i32 noundef %20, ptr noundef %2, ptr noundef %3, ptr noundef nonnull %4, ptr noundef %5, i32 noundef 2, i32 noundef %21, i32 noundef 1, ptr noundef nonnull %7) #5
  %23 = getelementptr inbounds nuw i8, ptr %2, i64 80
  %24 = load ptr, ptr %23, align 8
  %25 = getelementptr inbounds nuw i8, ptr %24, i64 50
  %26 = load i16, ptr %25, align 2
  %27 = and i16 %26, 8
  %.not = icmp eq i16 %27, 0
  %.pre28 = load ptr, ptr %7, align 8
  br i1 %.not, label %28, label %37

28:                                               ; preds = %proto_item_set_hidden.exit
  %29 = getelementptr inbounds nuw i8, ptr %9, i64 72
  %30 = load ptr, ptr %29, align 8
  %31 = icmp eq ptr %30, null
  %32 = icmp ne ptr %.pre28, null
  %or.cond = select i1 %31, i1 %32, i1 false
  br i1 %or.cond, label %33, label %37

33:                                               ; preds = %28
  %34 = call ptr @wmem_file_scope() #5
  %35 = load ptr, ptr %7, align 8
  %36 = call noalias ptr @wmem_strdup(ptr noundef %34, ptr noundef %35) #5
  store ptr %36, ptr %29, align 8
  %.pre = load ptr, ptr %7, align 8
  br label %37

37:                                               ; preds = %28, %33, %proto_item_set_hidden.exit
  %38 = phi ptr [ %.pre28, %28 ], [ %.pre, %33 ], [ %.pre28, %proto_item_set_hidden.exit ]
  %39 = getelementptr inbounds nuw i8, ptr %2, i64 8
  %40 = load ptr, ptr %39, align 8
  call void (ptr, i32, ptr, ...) @col_append_fstr(ptr noundef %40, i32 noundef 25, ptr noundef nonnull @.str.1228, ptr noundef %38) #5
  %41 = load i32, ptr @hf_offered, align 4
  %42 = call i32 @dissect_ndr_uint32(ptr noundef %0, i32 noundef %22, ptr noundef nonnull %2, ptr noundef %3, ptr noundef nonnull %4, ptr noundef %5, i32 noundef %41, ptr noundef null) #5
  ret i32 %42
}